target datalayout = "e-m:e-p270:32:32-p271:32:32-p272:64:64-i64:64-i128:128-f80:128-n8:16:32:64-S128"
target triple = "x86_64-pc-linux-gnu"

%struct.BackendGlobalData = type <{ ptr, ptr, i8, i8, i8, i8, i8, i8, i8, i8, i8, [3 x i8], i32, ptr, ptr, ptr, ptr, ptr, ptr, ptr, ptr, ptr, ptr, ptr, ptr, ptr, i32, %struct.jvmtiCapabilities, i8, [3 x i8], %struct.jvmtiEventCallbacks, ptr, ptr, ptr, ptr, ptr, ptr, ptr, i32, [4 x i8], ptr, i64, i32, [4 x i8], ptr, i32, i32, i8, i8, [6 x i8] }>
%struct.jvmtiCapabilities = type { i64, i64 }
%struct.jvmtiEventCallbacks = type { ptr, ptr, ptr, ptr, ptr, ptr, ptr, ptr, ptr, ptr, ptr, ptr, ptr, ptr, ptr, ptr, ptr, ptr, ptr, ptr, ptr, ptr, ptr, ptr, ptr, ptr, ptr, ptr, ptr, ptr, ptr, ptr, ptr, ptr, ptr, ptr, ptr, ptr, ptr }
%struct.EventInfo = type { i32, ptr, i8, ptr, ptr, i64, ptr, %union.anon }
%union.anon = type { %struct.anon.0 }
%struct.anon.0 = type { ptr, ptr, i8, %union.jvalue }
%union.jvalue = type { i64 }

@stderr = external global ptr, align 8
@.str = private unnamed_addr constant [17 x i8] c"JDWP exit error \00", align 1
@.str.1 = private unnamed_addr constant [2 x i8] c"\0A\00", align 1
@.str.2 = private unnamed_addr constant [19 x i8] c"%s(%d): %s [%s:%d]\00", align 1
@.str.4 = private unnamed_addr constant [55 x i8] c"src/jdk.jdwp.agent/share/native/libjdwp/eventHandler.c\00", align 1
@gdata = external global ptr, align 8
@.str.6 = private unnamed_addr constant [42 x i8] c"Can't get jclass for a methodID, invalid?\00", align 1
@active_callbacks = internal global i32 0, align 4
@vm_death_callback_active = internal global i8 0, align 1
@callbackLock = internal global ptr null, align 8
@callbackBlock = internal global ptr null, align 8
@.str.25 = private unnamed_addr constant [5 x i8] c"MISC\00", align 1
@.str.28 = private unnamed_addr constant [3 x i8] c"CB\00", align 1
@.str.30 = private unnamed_addr constant [35 x i8] c"Problems tracking active callbacks\00", align 1
@.str.55 = private unnamed_addr constant [31 x i8] c"cbFieldModification: thread=%p\00", align 1
@.str.56 = private unnamed_addr constant [24 x i8] c"END cbFieldModification\00", align 1

; Function Attrs: nounwind uwtable
define hidden ptr @getMethodClass(ptr noundef %0, ptr noundef %1) #0 {
  %3 = alloca ptr, align 8
  %4 = alloca ptr, align 8
  %5 = alloca ptr, align 8
  %6 = alloca ptr, align 8
  %7 = alloca i32, align 4
  store ptr %0, ptr %4, align 8
  store ptr %1, ptr %5, align 8
  store ptr null, ptr %6, align 8
  %8 = load ptr, ptr %5, align 8
  %9 = icmp eq ptr %8, null
  br i1 %9, label %10, label %11

10:                                               ; preds = %2
  store ptr null, ptr %3, align 8
  br label %24

11:                                               ; preds = %2
  %12 = load ptr, ptr %5, align 8
  %13 = call i32 @methodClass(ptr noundef %12, ptr noundef %6)
  store i32 %13, ptr %7, align 4
  %14 = load i32, ptr %7, align 4
  %15 = icmp ne i32 %14, 0
  br i1 %15, label %16, label %22

16:                                               ; preds = %11
  %17 = load ptr, ptr @stderr, align 8
  %18 = load i32, ptr %7, align 4
  %19 = call ptr @jvmtiErrorText(i32 noundef %18)
  %20 = load i32, ptr %7, align 4
  call void (ptr, ptr, ptr, ptr, ...) @print_message(ptr noundef %17, ptr noundef @.str, ptr noundef @.str.1, ptr noundef @.str.2, ptr noundef %19, i32 noundef %20, ptr noundef @.str.6, ptr noundef @.str.4, i32 noundef 728)
  %21 = load i32, ptr %7, align 4
  call void @debugInit_exit(i32 noundef %21, ptr noundef @.str.6)
  store ptr null, ptr %3, align 8
  br label %24

22:                                               ; preds = %11
  %23 = load ptr, ptr %6, align 8
  store ptr %23, ptr %3, align 8
  br label %24

24:                                               ; preds = %22, %16, %10
  %25 = load ptr, ptr %3, align 8
  ret ptr %25
}

; Function Attrs: nounwind uwtable
define internal void @cbFieldModification(ptr noundef %0, ptr noundef %1, ptr noundef %2, ptr noundef %3, i64 noundef %4, ptr noundef %5, ptr noundef %6, ptr noundef %7, i8 noundef signext %8, i64 %9) #0 {
  %11 = alloca %union.jvalue, align 8
  %12 = alloca ptr, align 8
  %13 = alloca ptr, align 8
  %14 = alloca ptr, align 8
  %15 = alloca ptr, align 8
  %16 = alloca i64, align 8
  %17 = alloca ptr, align 8
  %18 = alloca ptr, align 8
  %19 = alloca ptr, align 8
  %20 = alloca i8, align 1
  %21 = alloca %struct.EventInfo, align 8
  %22 = alloca i8, align 1
  %23 = getelementptr inbounds %union.jvalue, ptr %11, i32 0, i32 0
  store i64 %9, ptr %23, align 8
  store ptr %0, ptr %12, align 8
  store ptr %1, ptr %13, align 8
  store ptr %2, ptr %14, align 8
  store ptr %3, ptr %15, align 8
  store i64 %4, ptr %16, align 8
  store ptr %5, ptr %17, align 8
  store ptr %6, ptr %18, align 8
  store ptr %7, ptr %19, align 8
  store i8 %8, ptr %20, align 1
  %24 = load ptr, ptr @gdata, align 8
  %25 = getelementptr inbounds %struct.BackendGlobalData, ptr %24, i32 0, i32 38
  %26 = load i32, ptr %25, align 8
  %27 = and i32 %26, 64
  %28 = icmp ne i32 %27, 0
  br i1 %28, label %29, label %31

29:                                               ; preds = %10
  call void @log_message_begin(ptr noundef @.str.28, ptr noundef @.str.4, i32 noundef 995)
  %30 = load ptr, ptr %14, align 8
  call void (ptr, ...) @log_message_end(ptr noundef @.str.55, ptr noundef %30)
  br label %32

31:                                               ; preds = %10
  br label %32

32:                                               ; preds = %31, %29
  store i8 1, ptr %22, align 1
  %33 = load ptr, ptr @callbackLock, align 8
  call void @debugMonitorEnter(ptr noundef %33)
  %34 = load i8, ptr @vm_death_callback_active, align 1
  %35 = icmp ne i8 %34, 0
  br i1 %35, label %36, label %40

36:                                               ; preds = %32
  %37 = load ptr, ptr @callbackLock, align 8
  call void @debugMonitorExit(ptr noundef %37)
  %38 = load ptr, ptr @callbackBlock, align 8
  call void @debugMonitorEnter(ptr noundef %38)
  %39 = load ptr, ptr @callbackBlock, align 8
  call void @debugMonitorExit(ptr noundef %39)
  br label %44

40:                                               ; preds = %32
  %41 = load i32, ptr @active_callbacks, align 4
  %42 = add nsw i32 %41, 1
  store i32 %42, ptr @active_callbacks, align 4
  store i8 0, ptr %22, align 1
  %43 = load ptr, ptr @callbackLock, align 8
  call void @debugMonitorExit(ptr noundef %43)
  br label %44

44:                                               ; preds = %40, %36
  %45 = load i8, ptr %22, align 1
  %46 = icmp ne i8 %45, 0
  br i1 %46, label %101, label %47

47:                                               ; preds = %44
  call void @llvm.memset.p0.i64(ptr align 8 %21, i8 0, i64 88, i1 false)
  %48 = getelementptr inbounds %struct.EventInfo, ptr %21, i32 0, i32 0
  store i32 11, ptr %48, align 8
  %49 = load ptr, ptr %14, align 8
  %50 = getelementptr inbounds %struct.EventInfo, ptr %21, i32 0, i32 1
  store ptr %49, ptr %50, align 8
  %51 = load ptr, ptr %12, align 8
  %52 = load ptr, ptr %15, align 8
  %53 = call ptr @getMethodClass(ptr noundef %51, ptr noundef %52)
  %54 = getelementptr inbounds %struct.EventInfo, ptr %21, i32 0, i32 3
  store ptr %53, ptr %54, align 8
  %55 = load ptr, ptr %15, align 8
  %56 = getelementptr inbounds %struct.EventInfo, ptr %21, i32 0, i32 4
  store ptr %55, ptr %56, align 8
  %57 = load i64, ptr %16, align 8
  %58 = getelementptr inbounds %struct.EventInfo, ptr %21, i32 0, i32 5
  store i64 %57, ptr %58, align 8
  %59 = load ptr, ptr %19, align 8
  %60 = getelementptr inbounds %struct.EventInfo, ptr %21, i32 0, i32 7
  %61 = getelementptr inbounds %struct.anon.0, ptr %60, i32 0, i32 1
  store ptr %59, ptr %61, align 8
  %62 = load ptr, ptr %17, align 8
  %63 = getelementptr inbounds %struct.EventInfo, ptr %21, i32 0, i32 7
  %64 = getelementptr inbounds %struct.anon.0, ptr %63, i32 0, i32 0
  store ptr %62, ptr %64, align 8
  %65 = load ptr, ptr %18, align 8
  %66 = getelementptr inbounds %struct.EventInfo, ptr %21, i32 0, i32 6
  store ptr %65, ptr %66, align 8
  %67 = load i8, ptr %20, align 1
  %68 = getelementptr inbounds %struct.EventInfo, ptr %21, i32 0, i32 7
  %69 = getelementptr inbounds %struct.anon.0, ptr %68, i32 0, i32 2
  store i8 %67, ptr %69, align 8
  %70 = getelementptr inbounds %struct.EventInfo, ptr %21, i32 0, i32 7
  %71 = getelementptr inbounds %struct.anon.0, ptr %70, i32 0, i32 3
  call void @llvm.memcpy.p0.p0.i64(ptr align 8 %71, ptr align 8 %11, i64 8, i1 false)
  %72 = load ptr, ptr %13, align 8
  call void @event_callback(ptr noundef %72, ptr noundef %21)
  %73 = load ptr, ptr @callbackLock, align 8
  call void @debugMonitorEnter(ptr noundef %73)
  %74 = load i32, ptr @active_callbacks, align 4
  %75 = add nsw i32 %74, -1
  store i32 %75, ptr @active_callbacks, align 4
  %76 = load i32, ptr @active_callbacks, align 4
  %77 = icmp slt i32 %76, 0
  br i1 %77, label %78, label %81

78:                                               ; preds = %47
  %79 = load ptr, ptr @stderr, align 8
  %80 = call ptr @jvmtiErrorText(i32 noundef 0)
  call void (ptr, ptr, ptr, ptr, ...) @print_message(ptr noundef %79, ptr noundef @.str, ptr noundef @.str.1, ptr noundef @.str.2, ptr noundef %80, i32 noundef 0, ptr noundef @.str.30, ptr noundef @.str.4, i32 noundef 1010)
  call void @debugInit_exit(i32 noundef 0, ptr noundef @.str.30)
  br label %81

81:                                               ; preds = %78, %47
  %82 = load i8, ptr @vm_death_callback_active, align 1
  %83 = icmp ne i8 %82, 0
  br i1 %83, label %84, label %93

84:                                               ; preds = %81
  %85 = load i32, ptr @active_callbacks, align 4
  %86 = icmp eq i32 %85, 0
  br i1 %86, label %87, label %89

87:                                               ; preds = %84
  %88 = load ptr, ptr @callbackLock, align 8
  call void @debugMonitorNotifyAll(ptr noundef %88)
  br label %89

89:                                               ; preds = %87, %84
  %90 = load ptr, ptr @callbackLock, align 8
  call void @debugMonitorExit(ptr noundef %90)
  %91 = load ptr, ptr @callbackBlock, align 8
  call void @debugMonitorEnter(ptr noundef %91)
  %92 = load ptr, ptr @callbackBlock, align 8
  call void @debugMonitorExit(ptr noundef %92)
  br label %100

93:                                               ; preds = %81
  %94 = load i32, ptr @active_callbacks, align 4
  %95 = icmp eq i32 %94, 0
  br i1 %95, label %96, label %98

96:                                               ; preds = %93
  %97 = load ptr, ptr @callbackLock, align 8
  call void @debugMonitorNotifyAll(ptr noundef %97)
  br label %98

98:                                               ; preds = %96, %93
  %99 = load ptr, ptr @callbackLock, align 8
  call void @debugMonitorExit(ptr noundef %99)
  br label %100

100:                                              ; preds = %98, %89
  br label %101

101:                                              ; preds = %100, %44
  %102 = load ptr, ptr @gdata, align 8
  %103 = getelementptr inbounds %struct.BackendGlobalData, ptr %102, i32 0, i32 38
  %104 = load i32, ptr %103, align 8
  %105 = and i32 %104, 8
  %106 = icmp ne i32 %105, 0
  br i1 %106, label %107, label %108

107:                                              ; preds = %101
  call void @log_message_begin(ptr noundef @.str.25, ptr noundef @.str.4, i32 noundef 1012)
  call void (ptr, ...) @log_message_end(ptr noundef @.str.56)
  br label %109

108:                                              ; preds = %101
  br label %109

109:                                              ; preds = %108, %107
  ret void
}