; Function Attrs: nounwind uwtable
define internal void @cbFieldModification(ptr nocapture readnone %0, ptr noundef %1, ptr noundef %2, ptr noundef %3, i64 noundef %4, ptr noundef %5, ptr noundef %6, ptr noundef %7, i8 noundef signext %8, i64 %9) #0 {
  %11 = alloca ptr, align 8
  %12 = alloca %struct.EventInfo, align 8
  %13 = load ptr, ptr @gdata, align 8
  %14 = getelementptr inbounds i8, ptr %13, i64 528
  %15 = load i32, ptr %14, align 8
  %16 = and i32 %15, 64
  %.not = icmp eq i32 %16, 0
  br i1 %.not, label %18, label %17

17:                                               ; preds = %10
  tail call void @log_message_begin(ptr noundef nonnull @.str.28, ptr noundef nonnull @.str.4, i32 noundef 995) #6
  tail call void (ptr, ...) @log_message_end(ptr noundef nonnull @.str.55, ptr noundef %2) #6
  br label %18

18:                                               ; preds = %10, %17
  %19 = load ptr, ptr @callbackLock, align 8
  tail call void @debugMonitorEnter(ptr noundef %19) #6
  %.b11 = load i1, ptr @vm_death_callback_active, align 1
  br i1 %.b11, label %.thread, label %23

.thread:                                          ; preds = %18
  %20 = load ptr, ptr @callbackLock, align 8
  tail call void @debugMonitorExit(ptr noundef %20) #6
  %21 = load ptr, ptr @callbackBlock, align 8
  tail call void @debugMonitorEnter(ptr noundef %21) #6
  %22 = load ptr, ptr @callbackBlock, align 8
  tail call void @debugMonitorExit(ptr noundef %22) #6
  br label %66

23:                                               ; preds = %18
  %24 = load i32, ptr @active_callbacks, align 4
  %25 = add nsw i32 %24, 1
  store i32 %25, ptr @active_callbacks, align 4
  %26 = load ptr, ptr @callbackLock, align 8
  tail call void @debugMonitorExit(ptr noundef %26) #6
  call void @llvm.memset.p0.i64(ptr noundef nonnull align 8 dereferenceable(88) %12, i8 0, i64 80, i1 false)
  store i32 11, ptr %12, align 8
  %27 = getelementptr inbounds i8, ptr %12, i64 8
  store ptr %2, ptr %27, align 8
  call void @llvm.lifetime.start.p0(i64 8, ptr nonnull %11)
  store ptr null, ptr %11, align 8
  %28 = icmp eq ptr %3, null
  br i1 %28, label %getMethodClass.exit, label %29

29:                                               ; preds = %23
  %30 = call i32 @methodClass(ptr noundef nonnull %3, ptr noundef nonnull %11) #6
  %.not.i = icmp eq i32 %30, 0
  br i1 %.not.i, label %34, label %31

31:                                               ; preds = %29
  %32 = load ptr, ptr @stderr, align 8
  %33 = call ptr @jvmtiErrorText(i32 noundef %30) #6
  call void (ptr, ptr, ptr, ptr, ...) @print_message(ptr noundef %32, ptr noundef nonnull @.str, ptr noundef nonnull @.str.1, ptr noundef nonnull @.str.2, ptr noundef %33, i32 noundef %30, ptr noundef nonnull @.str.6, ptr noundef nonnull @.str.4, i32 noundef 728) #6
  call void @debugInit_exit(i32 noundef %30, ptr noundef nonnull @.str.6) #6
  br label %getMethodClass.exit

34:                                               ; preds = %29
  %35 = load ptr, ptr %11, align 8
  br label %getMethodClass.exit

getMethodClass.exit:                              ; preds = %23, %31, %34
  %.0.i = phi ptr [ null, %31 ], [ %35, %34 ], [ null, %23 ]
  call void @llvm.lifetime.end.p0(i64 8, ptr nonnull %11)
  %36 = getelementptr inbounds i8, ptr %12, i64 24
  store ptr %.0.i, ptr %36, align 8
  %37 = getelementptr inbounds i8, ptr %12, i64 32
  store ptr %3, ptr %37, align 8
  %38 = getelementptr inbounds i8, ptr %12, i64 40
  store i64 %4, ptr %38, align 8
  %39 = getelementptr inbounds i8, ptr %12, i64 56
  %40 = getelementptr inbounds i8, ptr %12, i64 64
  store ptr %7, ptr %40, align 8
  store ptr %5, ptr %39, align 8
  %41 = getelementptr inbounds i8, ptr %12, i64 48
  store ptr %6, ptr %41, align 8
  %42 = getelementptr inbounds i8, ptr %12, i64 72
  store i8 %8, ptr %42, align 8
  %43 = getelementptr inbounds i8, ptr %12, i64 80
  store i64 %9, ptr %43, align 8
  call fastcc void @event_callback(ptr noundef %1, ptr noundef nonnull %12)
  %44 = load ptr, ptr @callbackLock, align 8
  call void @debugMonitorEnter(ptr noundef %44) #6
  %45 = load i32, ptr @active_callbacks, align 4
  %46 = add nsw i32 %45, -1
  store i32 %46, ptr @active_callbacks, align 4
  %47 = icmp slt i32 %45, 1
  br i1 %47, label %48, label %51

48:                                               ; preds = %getMethodClass.exit
  %49 = load ptr, ptr @stderr, align 8
  %50 = call ptr @jvmtiErrorText(i32 noundef 0) #6
  call void (ptr, ptr, ptr, ptr, ...) @print_message(ptr noundef %49, ptr noundef nonnull @.str, ptr noundef nonnull @.str.1, ptr noundef nonnull @.str.2, ptr noundef %50, i32 noundef 0, ptr noundef nonnull @.str.30, ptr noundef nonnull @.str.4, i32 noundef 1010) #6
  call void @debugInit_exit(i32 noundef 0, ptr noundef nonnull @.str.30) #6
  br label %51

51:                                               ; preds = %48, %getMethodClass.exit
  %.b = load i1, ptr @vm_death_callback_active, align 1
  %52 = load i32, ptr @active_callbacks, align 4
  %53 = icmp eq i32 %52, 0
  br i1 %.b, label %54, label %61

54:                                               ; preds = %51
  br i1 %53, label %55, label %57

55:                                               ; preds = %54
  %56 = load ptr, ptr @callbackLock, align 8
  call void @debugMonitorNotifyAll(ptr noundef %56) #6
  br label %57

57:                                               ; preds = %55, %54
  %58 = load ptr, ptr @callbackLock, align 8
  call void @debugMonitorExit(ptr noundef %58) #6
  %59 = load ptr, ptr @callbackBlock, align 8
  call void @debugMonitorEnter(ptr noundef %59) #6
  %60 = load ptr, ptr @callbackBlock, align 8
  call void @debugMonitorExit(ptr noundef %60) #6
  br label %66

61:                                               ; preds = %51
  br i1 %53, label %62, label %64

62:                                               ; preds = %61
  %63 = load ptr, ptr @callbackLock, align 8
  call void @debugMonitorNotifyAll(ptr noundef %63) #6
  br label %64

64:                                               ; preds = %62, %61
  %65 = load ptr, ptr @callbackLock, align 8
  call void @debugMonitorExit(ptr noundef %65) #6
  br label %66

66:                                               ; preds = %.thread, %57, %64
  %67 = load ptr, ptr @gdata, align 8
  %68 = getelementptr inbounds i8, ptr %67, i64 528
  %69 = load i32, ptr %68, align 8
  %70 = and i32 %69, 8
  %.not13 = icmp eq i32 %70, 0
  br i1 %.not13, label %72, label %71

71:                                               ; preds = %66
  call void @log_message_begin(ptr noundef nonnull @.str.25, ptr noundef nonnull @.str.4, i32 noundef 1012) #6
  call void (ptr, ...) @log_message_end(ptr noundef nonnull @.str.56) #6
  br label %72

72:                                               ; preds = %66, %71
  ret void
}